target datalayout = "e-m:e-p270:32:32-p271:32:32-p272:64:64-i64:64-i128:128-f80:128-n8:16:32:64-S128"
target triple = "x86_64-pc-linux-gnu"

%class.OopHandle = type { ptr }
%class.MemoryUsage = type { i64, i64, i64, i64 }
%class.SensorInfo = type { %class.OopHandle, i8, i64, i32, i32, %class.MemoryUsage }
%class.ThresholdSupport = type { i8, i8, i64, i64 }

; Function Attrs: mustprogress nounwind uwtable
define linkonce_odr hidden noundef i64 @_ZNK11MemoryUsage4usedEv(ptr noundef nonnull align 8 dereferenceable(32) %0) #1 comdat align 2 {
  %2 = alloca ptr, align 8
  store ptr %0, ptr %2, align 8
  %3 = load ptr, ptr %2, align 8
  %4 = getelementptr inbounds %class.MemoryUsage, ptr %3, i32 0, i32 1
  %5 = load i64, ptr %4, align 8
  ret i64 %5
}

; Function Attrs: mustprogress nounwind uwtable
define linkonce_odr hidden noundef zeroext i1 @_ZN16ThresholdSupport24is_low_threshold_crossedE11MemoryUsage(ptr noundef nonnull align 8 dereferenceable(24) %0, ptr noundef byval(%class.MemoryUsage) align 8 %1) #1 comdat align 2 {
  %3 = alloca i1, align 1
  %4 = alloca ptr, align 8
  store ptr %0, ptr %4, align 8
  %5 = load ptr, ptr %4, align 8
  %6 = getelementptr inbounds %class.ThresholdSupport, ptr %5, i32 0, i32 1
  %7 = load i8, ptr %6, align 1
  %8 = trunc i8 %7 to i1
  br i1 %8, label %9, label %18

9:                                                ; preds = %2
  %10 = getelementptr inbounds %class.ThresholdSupport, ptr %5, i32 0, i32 3
  %11 = load i64, ptr %10, align 8
  %12 = icmp ugt i64 %11, 0
  br i1 %12, label %13, label %18

13:                                               ; preds = %9
  %14 = call noundef i64 @_ZNK11MemoryUsage4usedEv(ptr noundef nonnull align 8 dereferenceable(32) %1)
  %15 = getelementptr inbounds %class.ThresholdSupport, ptr %5, i32 0, i32 3
  %16 = load i64, ptr %15, align 8
  %17 = icmp ult i64 %14, %16
  store i1 %17, ptr %3, align 1
  br label %19

18:                                               ; preds = %9, %2
  store i1 false, ptr %3, align 1
  br label %19

19:                                               ; preds = %18, %13
  %20 = load i1, ptr %3, align 1
  ret i1 %20
}

; Function Attrs: mustprogress nounwind uwtable
define linkonce_odr hidden noundef zeroext i1 @_ZN16ThresholdSupport25is_high_threshold_crossedE11MemoryUsage(ptr noundef nonnull align 8 dereferenceable(24) %0, ptr noundef byval(%class.MemoryUsage) align 8 %1) #1 comdat align 2 {
  %3 = alloca i1, align 1
  %4 = alloca ptr, align 8
  store ptr %0, ptr %4, align 8
  %5 = load ptr, ptr %4, align 8
  %6 = getelementptr inbounds %class.ThresholdSupport, ptr %5, i32 0, i32 0
  %7 = load i8, ptr %6, align 8
  %8 = trunc i8 %7 to i1
  br i1 %8, label %9, label %18

9:                                                ; preds = %2
  %10 = getelementptr inbounds %class.ThresholdSupport, ptr %5, i32 0, i32 2
  %11 = load i64, ptr %10, align 8
  %12 = icmp ugt i64 %11, 0
  br i1 %12, label %13, label %18

13:                                               ; preds = %9
  %14 = call noundef i64 @_ZNK11MemoryUsage4usedEv(ptr noundef nonnull align 8 dereferenceable(32) %1)
  %15 = getelementptr inbounds %class.ThresholdSupport, ptr %5, i32 0, i32 2
  %16 = load i64, ptr %15, align 8
  %17 = icmp uge i64 %14, %16
  store i1 %17, ptr %3, align 1
  br label %19

18:                                               ; preds = %9, %2
  store i1 false, ptr %3, align 1
  br label %19

19:                                               ; preds = %18, %13
  %20 = load i1, ptr %3, align 1
  ret i1 %20
}

; Function Attrs: mustprogress nounwind uwtable
define hidden void @_ZN10SensorInfo24set_counter_sensor_levelE11MemoryUsageP16ThresholdSupport(ptr noundef nonnull align 8 dereferenceable(64) %0, ptr noundef byval(%class.MemoryUsage) align 8 %1, ptr noundef %2) #1 align 2 {
  %4 = alloca ptr, align 8
  %5 = alloca ptr, align 8
  %6 = alloca i8, align 1
  %7 = alloca %class.MemoryUsage, align 8
  %8 = alloca i8, align 1
  %9 = alloca %class.MemoryUsage, align 8
  store ptr %0, ptr %4, align 8
  store ptr %2, ptr %5, align 8
  %10 = load ptr, ptr %4, align 8
  %11 = load ptr, ptr %5, align 8
  call void @llvm.memcpy.p0.p0.i64(ptr align 8 %7, ptr align 8 %1, i64 32, i1 false)
  %12 = call noundef zeroext i1 @_ZN16ThresholdSupport25is_high_threshold_crossedE11MemoryUsage(ptr noundef nonnull align 8 dereferenceable(24) %11, ptr noundef byval(%class.MemoryUsage) align 8 %7)
  %13 = zext i1 %12 to i8
  store i8 %13, ptr %6, align 1
  %14 = load ptr, ptr %5, align 8
  call void @llvm.memcpy.p0.p0.i64(ptr align 8 %9, ptr align 8 %1, i64 32, i1 false)
  %15 = call noundef zeroext i1 @_ZN16ThresholdSupport24is_low_threshold_crossedE11MemoryUsage(ptr noundef nonnull align 8 dereferenceable(24) %14, ptr noundef byval(%class.MemoryUsage) align 8 %9)
  %16 = zext i1 %15 to i8
  store i8 %16, ptr %8, align 1
  %17 = load i8, ptr %6, align 1
  %18 = trunc i8 %17 to i1
  br i1 %18, label %19, label %25

19:                                               ; preds = %3
  %20 = getelementptr inbounds %class.SensorInfo, ptr %10, i32 0, i32 3
  %21 = load i32, ptr %20, align 8
  %22 = add nsw i32 %21, 1
  store i32 %22, ptr %20, align 8
  %23 = getelementptr inbounds %class.SensorInfo, ptr %10, i32 0, i32 5
  call void @llvm.memcpy.p0.p0.i64(ptr align 8 %23, ptr align 8 %1, i64 32, i1 false)
  %24 = getelementptr inbounds %class.SensorInfo, ptr %10, i32 0, i32 4
  store i32 0, ptr %24, align 4
  br label %41

25:                                               ; preds = %3
  %26 = load i8, ptr %8, align 1
  %27 = trunc i8 %26 to i1
  br i1 %27, label %28, label %40

28:                                               ; preds = %25
  %29 = getelementptr inbounds %class.SensorInfo, ptr %10, i32 0, i32 1
  %30 = load i8, ptr %29, align 8
  %31 = trunc i8 %30 to i1
  br i1 %31, label %36, label %32

32:                                               ; preds = %28
  %33 = getelementptr inbounds %class.SensorInfo, ptr %10, i32 0, i32 3
  %34 = load i32, ptr %33, align 8
  %35 = icmp sgt i32 %34, 0
  br i1 %35, label %36, label %40

36:                                               ; preds = %32, %28
  %37 = getelementptr inbounds %class.SensorInfo, ptr %10, i32 0, i32 4
  %38 = load i32, ptr %37, align 4
  %39 = add nsw i32 %38, 1
  store i32 %39, ptr %37, align 4
  br label %40

40:                                               ; preds = %36, %32, %25
  br label %41

41:                                               ; preds = %40, %19
  ret void
}