; Function Attrs: mustprogress nofree norecurse nosync nounwind willreturn memory(argmem: readwrite) uwtable
define hidden void @_ZN10SensorInfo24set_counter_sensor_levelE11MemoryUsageP16ThresholdSupport(ptr nocapture noundef nonnull align 8 dereferenceable(64) %0, ptr nocapture noundef readonly byval(%class.MemoryUsage) align 8 %1, ptr nocapture noundef readonly %2) local_unnamed_addr #3 align 2 {
  %.sroa.2.0..sroa_idx = getelementptr inbounds i8, ptr %1, i64 8
  %.sroa.2.0.copyload = load i64, ptr %.sroa.2.0..sroa_idx, align 8
  %4 = freeze i64 %.sroa.2.0.copyload
  %5 = load i8, ptr %2, align 8
  %6 = trunc i8 %5 to i1
  br i1 %6, label %_ZN16ThresholdSupport25is_high_threshold_crossedE11MemoryUsage.exit, label %_ZN16ThresholdSupport25is_high_threshold_crossedE11MemoryUsage.exit.thread

_ZN16ThresholdSupport25is_high_threshold_crossedE11MemoryUsage.exit: ; preds = %3
  %7 = getelementptr inbounds i8, ptr %2, i64 8
  %8 = load i64, ptr %7, align 8
  %9 = add i64 %8, -1
  %spec.select = icmp ult i64 %9, %4
  %10 = getelementptr inbounds i8, ptr %2, i64 1
  %11 = load i8, ptr %10, align 1
  %12 = trunc i8 %11 to i1
  br i1 %12, label %_ZN16ThresholdSupport24is_low_threshold_crossedE11MemoryUsage.exit, label %_ZN16ThresholdSupport24is_low_threshold_crossedE11MemoryUsage.exit.thread

_ZN16ThresholdSupport25is_high_threshold_crossedE11MemoryUsage.exit.thread: ; preds = %3
  %13 = getelementptr inbounds i8, ptr %2, i64 1
  %14 = load i8, ptr %13, align 1
  %15 = trunc i8 %14 to i1
  br i1 %15, label %_ZN16ThresholdSupport24is_low_threshold_crossedE11MemoryUsage.exit.thread23, label %.thread

_ZN16ThresholdSupport24is_low_threshold_crossedE11MemoryUsage.exit.thread23: ; preds = %_ZN16ThresholdSupport25is_high_threshold_crossedE11MemoryUsage.exit.thread
  %16 = getelementptr inbounds i8, ptr %2, i64 16
  %17 = load i64, ptr %16, align 8
  %18 = icmp ult i64 %4, %17
  br i1 %18, label %29, label %.thread

_ZN16ThresholdSupport24is_low_threshold_crossedE11MemoryUsage.exit: ; preds = %_ZN16ThresholdSupport25is_high_threshold_crossedE11MemoryUsage.exit
  br i1 %spec.select, label %19, label %25

_ZN16ThresholdSupport24is_low_threshold_crossedE11MemoryUsage.exit.thread: ; preds = %_ZN16ThresholdSupport25is_high_threshold_crossedE11MemoryUsage.exit
  br i1 %spec.select, label %19, label %.thread

19:                                               ; preds = %_ZN16ThresholdSupport24is_low_threshold_crossedE11MemoryUsage.exit.thread, %_ZN16ThresholdSupport24is_low_threshold_crossedE11MemoryUsage.exit
  %20 = getelementptr inbounds i8, ptr %0, i64 24
  %21 = load i32, ptr %20, align 8
  %22 = add nsw i32 %21, 1
  store i32 %22, ptr %20, align 8
  %23 = getelementptr inbounds i8, ptr %0, i64 32
  call void @llvm.memcpy.p0.p0.i64(ptr noundef nonnull align 8 dereferenceable(32) %23, ptr noundef nonnull align 8 dereferenceable(32) %1, i64 32, i1 false)
  %24 = getelementptr inbounds i8, ptr %0, i64 28
  store i32 0, ptr %24, align 4
  br label %.thread

25:                                               ; preds = %_ZN16ThresholdSupport24is_low_threshold_crossedE11MemoryUsage.exit
  %26 = getelementptr inbounds i8, ptr %2, i64 16
  %27 = load i64, ptr %26, align 8
  %28 = icmp ult i64 %4, %27
  br i1 %28, label %29, label %.thread

29:                                               ; preds = %_ZN16ThresholdSupport24is_low_threshold_crossedE11MemoryUsage.exit.thread23, %25
  %30 = getelementptr inbounds i8, ptr %0, i64 8
  %31 = load i8, ptr %30, align 8
  %32 = trunc i8 %31 to i1
  %33 = getelementptr inbounds i8, ptr %0, i64 24
  %34 = load i32, ptr %33, align 8
  %35 = icmp sgt i32 %34, 0
  %or.cond = select i1 %32, i1 true, i1 %35
  br i1 %or.cond, label %36, label %.thread

36:                                               ; preds = %29
  %37 = getelementptr inbounds i8, ptr %0, i64 28
  %38 = load i32, ptr %37, align 4
  %39 = add nsw i32 %38, 1
  store i32 %39, ptr %37, align 4
  br label %.thread

.thread:                                          ; preds = %_ZN16ThresholdSupport25is_high_threshold_crossedE11MemoryUsage.exit.thread, %_ZN16ThresholdSupport24is_low_threshold_crossedE11MemoryUsage.exit.thread23, %_ZN16ThresholdSupport24is_low_threshold_crossedE11MemoryUsage.exit.thread, %29, %25, %36, %19
  ret void
}